; Function Attrs: mustprogress nounwind uwtable
define internal fastcc void @_ZN12_GLOBAL__N_114CXXNameMangler10mangleTypeEPKN5clang10BitIntTypeE(ptr %.8.val, ptr nocapture noundef readonly %0) unnamed_addr #0 align 2 {
  %2 = getelementptr inbounds nuw i8, ptr %.8.val, i64 24
  %3 = load ptr, ptr %2, align 8
  %4 = getelementptr inbounds nuw i8, ptr %.8.val, i64 32
  %5 = load ptr, ptr %4, align 8
  %6 = icmp eq ptr %3, %5
  br i1 %6, label %7, label %9

7:                                                ; preds = %1
  %8 = tail call noundef nonnull align 8 dereferenceable(48) ptr @_ZN4llvm11raw_ostream5writeEPKcm(ptr noundef nonnull align 8 dereferenceable(48) %.8.val, ptr noundef nonnull @.str.193, i64 noundef 1) #24
  %.phi.trans.insert = getelementptr inbounds nuw i8, ptr %8, i64 32
  %.pre = load ptr, ptr %.phi.trans.insert, align 8
  br label %_ZN4llvm11raw_ostreamlsEPKc.exit

9:                                                ; preds = %1
  store i8 68, ptr %5, align 1
  %10 = load ptr, ptr %4, align 8
  %11 = getelementptr inbounds i8, ptr %10, i64 1
  store ptr %11, ptr %4, align 8
  br label %_ZN4llvm11raw_ostreamlsEPKc.exit

_ZN4llvm11raw_ostreamlsEPKc.exit:                 ; preds = %7, %9
  %12 = phi ptr [ %.pre, %7 ], [ %11, %9 ]
  %.0.i.i = phi ptr [ %8, %7 ], [ %.8.val, %9 ]
  %13 = getelementptr inbounds nuw i8, ptr %0, i64 32
  %14 = load i32, ptr %13, align 16
  %15 = and i32 %14, 1
  %.not = icmp eq i32 %15, 0
  %.str.194..str.119 = select i1 %.not, ptr @.str.119, ptr @.str.194
  %16 = getelementptr inbounds nuw i8, ptr %.0.i.i, i64 24
  %17 = load ptr, ptr %16, align 8
  %18 = icmp eq ptr %17, %12
  br i1 %18, label %19, label %21

19:                                               ; preds = %_ZN4llvm11raw_ostreamlsEPKc.exit
  %20 = tail call noundef nonnull align 8 dereferenceable(48) ptr @_ZN4llvm11raw_ostream5writeEPKcm(ptr noundef nonnull align 8 dereferenceable(48) %.0.i.i, ptr noundef nonnull %.str.194..str.119, i64 noundef 1) #24
  br label %_ZN4llvm11raw_ostreamlsEPKc.exit5

21:                                               ; preds = %_ZN4llvm11raw_ostreamlsEPKc.exit
  %22 = getelementptr inbounds nuw i8, ptr %.0.i.i, i64 32
  %23 = load i8, ptr %.str.194..str.119, align 1
  store i8 %23, ptr %12, align 1
  %24 = load ptr, ptr %22, align 8
  %25 = getelementptr inbounds i8, ptr %24, i64 1
  store ptr %25, ptr %22, align 8
  br label %_ZN4llvm11raw_ostreamlsEPKc.exit5

_ZN4llvm11raw_ostreamlsEPKc.exit5:                ; preds = %19, %21
  %.0.i.i4 = phi ptr [ %20, %19 ], [ %.0.i.i, %21 ]
  %26 = load i32, ptr %13, align 16
  %27 = lshr i32 %26, 1
  %28 = and i32 %27, 16777215
  %29 = zext nneg i32 %28 to i64
  %30 = tail call noundef nonnull align 8 dereferenceable(48) ptr @_ZN4llvm11raw_ostreamlsEm(ptr noundef nonnull align 8 dereferenceable(48) %.0.i.i4, i64 noundef %29) #24
  %31 = getelementptr inbounds nuw i8, ptr %30, i64 24
  %32 = load ptr, ptr %31, align 8
  %33 = getelementptr inbounds nuw i8, ptr %30, i64 32
  %34 = load ptr, ptr %33, align 8
  %35 = icmp eq ptr %32, %34
  br i1 %35, label %36, label %38

36:                                               ; preds = %_ZN4llvm11raw_ostreamlsEPKc.exit5
  %37 = tail call noundef nonnull align 8 dereferenceable(48) ptr @_ZN4llvm11raw_ostream5writeEPKcm(ptr noundef nonnull align 8 dereferenceable(48) %30, ptr noundef nonnull @.str.1, i64 noundef 1) #24
  br label %_ZN4llvm11raw_ostreamlsEPKc.exit8

38:                                               ; preds = %_ZN4llvm11raw_ostreamlsEPKc.exit5
  store i8 95, ptr %34, align 1
  %39 = load ptr, ptr %33, align 8
  %40 = getelementptr inbounds i8, ptr %39, i64 1
  store ptr %40, ptr %33, align 8
  br label %_ZN4llvm11raw_ostreamlsEPKc.exit8

_ZN4llvm11raw_ostreamlsEPKc.exit8:                ; preds = %36, %38
  ret void
}